(lp0
(lp1
(lp2
I0
aI0
aI0
aI24
aI24
aI0
aI0
aI0
aaF0.5
aa(lp3
(lp4
I0
aI0
aI60
aI36
aI36
aI60
aI0
aI0
aaF0.5
aa(lp5
(lp6
I0
aI126
aI66
aI66
aI66
aI66
aI126
aI0
aaF0.5
aa(lp7
(lp8
I255
aI129
aI129
aI129
aI129
aI129
aI129
aI255
aaF0.5
aa.